target datalayout = "e-m:e-p270:32:32-p271:32:32-p272:64:64-i64:64-i128:128-f80:128-n8:16:32:64-S128"
target triple = "x86_64-pc-linux-gnu"

%struct.Vec_Int_t_ = type { i32, i32, ptr }
%struct.Gia_Man_t_ = type { ptr, ptr, i32, i32, i32, i32, ptr, ptr, i32, i32, i32, ptr, ptr, %struct.Vec_Int_t_, %struct.Vec_Int_t_, i32, i32, i32, %struct.Vec_Int_t_, ptr, ptr, ptr, i32, i32, i32, i32, ptr, ptr, ptr, ptr, ptr, i32, i32, ptr, i32, ptr, ptr, ptr, ptr, ptr, ptr, ptr, ptr, ptr, ptr, ptr, ptr, ptr, ptr, ptr, ptr, ptr, ptr, %struct.Vec_Int_t_, %struct.Vec_Int_t_, ptr, ptr, ptr, ptr, ptr, ptr, ptr, ptr, ptr, ptr, ptr, ptr, ptr, ptr, ptr, ptr, ptr, ptr, ptr, ptr, ptr, i32, float, float, ptr, ptr, i32, ptr, ptr, ptr, ptr, ptr, ptr, ptr, ptr, ptr, ptr, ptr, ptr, ptr, ptr, ptr, i64, i64, ptr, ptr, i32, i32, i32, i32, i32, i32, i32, i32, i32, i32, i32, i32, ptr, ptr, ptr, ptr, ptr, ptr, ptr, ptr, i32, i32, i32, ptr, i32, i32, ptr, ptr, ptr, ptr, ptr, ptr, i32, i32, ptr, %struct.Vec_Int_t_, %struct.Vec_Int_t_, %struct.Vec_Int_t_, ptr, ptr, ptr, i32, i32, i32, i32, ptr, ptr, ptr, ptr, ptr }
%struct.Cnf_Dat_t_ = type { ptr, i32, i32, i32, ptr, ptr, ptr, ptr, ptr, ptr }
%struct.Qbf_Man_t_ = type { ptr, i32, i32, i32, i32, ptr, ptr, ptr, ptr, ptr, ptr, i64, i64 }

; Function Attrs: inlinehint nounwind uwtable
define internal i32 @toLitCond(i32 noundef %0, i32 noundef %1) #2 {
  %3 = alloca i32, align 4
  %4 = alloca i32, align 4
  store i32 %0, ptr %3, align 4, !tbaa !8
  store i32 %1, ptr %4, align 4, !tbaa !8
  %5 = load i32, ptr %3, align 4, !tbaa !8
  %6 = load i32, ptr %3, align 4, !tbaa !8
  %7 = add nsw i32 %5, %6
  %8 = load i32, ptr %4, align 4, !tbaa !8
  %9 = icmp ne i32 %8, 0
  %10 = zext i1 %9 to i32
  %11 = add nsw i32 %7, %10
  ret i32 %11
}

; Function Attrs: inlinehint nounwind uwtable
define internal i32 @Vec_IntSize(ptr noundef %0) #2 {
  %2 = alloca ptr, align 8
  store ptr %0, ptr %2, align 8, !tbaa !10
  %3 = load ptr, ptr %2, align 8, !tbaa !10
  %4 = getelementptr inbounds nuw %struct.Vec_Int_t_, ptr %3, i32 0, i32 1
  %5 = load i32, ptr %4, align 4, !tbaa !14
  ret i32 %5
}

; Function Attrs: inlinehint nounwind uwtable
define internal i32 @sat_solver_add_buffer(ptr noundef %0, i32 noundef %1, i32 noundef %2, i32 noundef %3) #2 {
  %5 = alloca i32, align 4
  %6 = alloca ptr, align 8
  %7 = alloca i32, align 4
  %8 = alloca i32, align 4
  %9 = alloca i32, align 4
  %10 = alloca [2 x i32], align 4
  %11 = alloca i32, align 4
  %12 = alloca i32, align 4
  store ptr %0, ptr %6, align 8, !tbaa !82
  store i32 %1, ptr %7, align 4, !tbaa !8
  store i32 %2, ptr %8, align 4, !tbaa !8
  store i32 %3, ptr %9, align 4, !tbaa !8
  call void @llvm.lifetime.start.p0(i64 8, ptr %10) #14
  call void @llvm.lifetime.start.p0(i64 4, ptr %11) #14
  %13 = load i32, ptr %7, align 4, !tbaa !8
  %14 = call i32 @toLitCond(i32 noundef %13, i32 noundef 0)
  %15 = getelementptr inbounds [2 x i32], ptr %10, i64 0, i64 0
  store i32 %14, ptr %15, align 4, !tbaa !8
  %16 = load i32, ptr %8, align 4, !tbaa !8
  %17 = load i32, ptr %9, align 4, !tbaa !8
  %18 = icmp ne i32 %17, 0
  %19 = xor i1 %18, true
  %20 = zext i1 %19 to i32
  %21 = call i32 @toLitCond(i32 noundef %16, i32 noundef %20)
  %22 = getelementptr inbounds [2 x i32], ptr %10, i64 0, i64 1
  store i32 %21, ptr %22, align 4, !tbaa !8
  %23 = load ptr, ptr %6, align 8, !tbaa !82
  %24 = getelementptr inbounds [2 x i32], ptr %10, i64 0, i64 0
  %25 = getelementptr inbounds [2 x i32], ptr %10, i64 0, i64 0
  %26 = getelementptr inbounds i32, ptr %25, i64 2
  %27 = call i32 @sat_solver_addclause(ptr noundef %23, ptr noundef %24, ptr noundef %26)
  store i32 %27, ptr %11, align 4, !tbaa !8
  %28 = load i32, ptr %11, align 4, !tbaa !8
  %29 = icmp eq i32 %28, 0
  br i1 %29, label %30, label %31

30:                                               ; preds = %4
  store i32 0, ptr %5, align 4
  store i32 1, ptr %12, align 4
  br label %48

31:                                               ; preds = %4
  %32 = load i32, ptr %7, align 4, !tbaa !8
  %33 = call i32 @toLitCond(i32 noundef %32, i32 noundef 1)
  %34 = getelementptr inbounds [2 x i32], ptr %10, i64 0, i64 0
  store i32 %33, ptr %34, align 4, !tbaa !8
  %35 = load i32, ptr %8, align 4, !tbaa !8
  %36 = load i32, ptr %9, align 4, !tbaa !8
  %37 = call i32 @toLitCond(i32 noundef %35, i32 noundef %36)
  %38 = getelementptr inbounds [2 x i32], ptr %10, i64 0, i64 1
  store i32 %37, ptr %38, align 4, !tbaa !8
  %39 = load ptr, ptr %6, align 8, !tbaa !82
  %40 = getelementptr inbounds [2 x i32], ptr %10, i64 0, i64 0
  %41 = getelementptr inbounds [2 x i32], ptr %10, i64 0, i64 0
  %42 = getelementptr inbounds i32, ptr %41, i64 2
  %43 = call i32 @sat_solver_addclause(ptr noundef %39, ptr noundef %40, ptr noundef %42)
  store i32 %43, ptr %11, align 4, !tbaa !8
  %44 = load i32, ptr %11, align 4, !tbaa !8
  %45 = icmp eq i32 %44, 0
  br i1 %45, label %46, label %47

46:                                               ; preds = %31
  store i32 0, ptr %5, align 4
  store i32 1, ptr %12, align 4
  br label %48

47:                                               ; preds = %31
  store i32 2, ptr %5, align 4
  store i32 1, ptr %12, align 4
  br label %48

48:                                               ; preds = %47, %46, %30
  call void @llvm.lifetime.end.p0(i64 4, ptr %11) #14
  call void @llvm.lifetime.end.p0(i64 8, ptr %10) #14
  %49 = load i32, ptr %5, align 4
  ret i32 %49
}

; Function Attrs: nounwind uwtable
define void @Cnf_SpecialDataLift(ptr noundef %0, i32 noundef %1, i32 noundef %2, i32 noundef %3) #0 {
  %5 = alloca ptr, align 8
  %6 = alloca i32, align 4
  %7 = alloca i32, align 4
  %8 = alloca i32, align 4
  %9 = alloca i32, align 4
  %10 = alloca i32, align 4
  store ptr %0, ptr %5, align 8, !tbaa !80
  store i32 %1, ptr %6, align 4, !tbaa !8
  store i32 %2, ptr %7, align 4, !tbaa !8
  store i32 %3, ptr %8, align 4, !tbaa !8
  call void @llvm.lifetime.start.p0(i64 4, ptr %9) #14
  call void @llvm.lifetime.start.p0(i64 4, ptr %10) #14
  store i32 0, ptr %9, align 4, !tbaa !8
  br label %11

11:                                               ; preds = %62, %4
  %12 = load i32, ptr %9, align 4, !tbaa !8
  %13 = load ptr, ptr %5, align 8, !tbaa !80
  %14 = getelementptr inbounds nuw %struct.Cnf_Dat_t_, ptr %13, i32 0, i32 2
  %15 = load i32, ptr %14, align 4, !tbaa !130
  %16 = icmp slt i32 %12, %15
  br i1 %16, label %17, label %65

17:                                               ; preds = %11
  %18 = load ptr, ptr %5, align 8, !tbaa !80
  %19 = getelementptr inbounds nuw %struct.Cnf_Dat_t_, ptr %18, i32 0, i32 4
  %20 = load ptr, ptr %19, align 8, !tbaa !131
  %21 = getelementptr inbounds ptr, ptr %20, i64 0
  %22 = load ptr, ptr %21, align 8, !tbaa !22
  %23 = load i32, ptr %9, align 4, !tbaa !8
  %24 = sext i32 %23 to i64
  %25 = getelementptr inbounds i32, ptr %22, i64 %24
  %26 = load i32, ptr %25, align 4, !tbaa !8
  %27 = sdiv i32 %26, 2
  store i32 %27, ptr %10, align 4, !tbaa !8
  %28 = load i32, ptr %10, align 4, !tbaa !8
  %29 = load i32, ptr %7, align 4, !tbaa !8
  %30 = icmp slt i32 %28, %29
  br i1 %30, label %35, label %31

31:                                               ; preds = %17
  %32 = load i32, ptr %10, align 4, !tbaa !8
  %33 = load i32, ptr %8, align 4, !tbaa !8
  %34 = icmp sge i32 %32, %33
  br i1 %34, label %35, label %48

35:                                               ; preds = %31, %17
  %36 = load i32, ptr %6, align 4, !tbaa !8
  %37 = mul nsw i32 2, %36
  %38 = load ptr, ptr %5, align 8, !tbaa !80
  %39 = getelementptr inbounds nuw %struct.Cnf_Dat_t_, ptr %38, i32 0, i32 4
  %40 = load ptr, ptr %39, align 8, !tbaa !131
  %41 = getelementptr inbounds ptr, ptr %40, i64 0
  %42 = load ptr, ptr %41, align 8, !tbaa !22
  %43 = load i32, ptr %9, align 4, !tbaa !8
  %44 = sext i32 %43 to i64
  %45 = getelementptr inbounds i32, ptr %42, i64 %44
  %46 = load i32, ptr %45, align 4, !tbaa !8
  %47 = add nsw i32 %46, %37
  store i32 %47, ptr %45, align 4, !tbaa !8
  br label %61

48:                                               ; preds = %31
  %49 = load i32, ptr %7, align 4, !tbaa !8
  %50 = mul nsw i32 2, %49
  %51 = load ptr, ptr %5, align 8, !tbaa !80
  %52 = getelementptr inbounds nuw %struct.Cnf_Dat_t_, ptr %51, i32 0, i32 4
  %53 = load ptr, ptr %52, align 8, !tbaa !131
  %54 = getelementptr inbounds ptr, ptr %53, i64 0
  %55 = load ptr, ptr %54, align 8, !tbaa !22
  %56 = load i32, ptr %9, align 4, !tbaa !8
  %57 = sext i32 %56 to i64
  %58 = getelementptr inbounds i32, ptr %55, i64 %57
  %59 = load i32, ptr %58, align 4, !tbaa !8
  %60 = sub nsw i32 %59, %50
  store i32 %60, ptr %58, align 4, !tbaa !8
  br label %61

61:                                               ; preds = %48, %35
  br label %62

62:                                               ; preds = %61
  %63 = load i32, ptr %9, align 4, !tbaa !8
  %64 = add nsw i32 %63, 1
  store i32 %64, ptr %9, align 4, !tbaa !8
  br label %11, !llvm.loop !132

65:                                               ; preds = %11
  call void @llvm.lifetime.end.p0(i64 4, ptr %10) #14
  call void @llvm.lifetime.end.p0(i64 4, ptr %9) #14
  ret void
}

; Function Attrs: inlinehint nounwind uwtable
define internal i32 @Gia_ManPiNum(ptr noundef %0) #2 {
  %2 = alloca ptr, align 8
  store ptr %0, ptr %2, align 8, !tbaa !20
  %3 = load ptr, ptr %2, align 8, !tbaa !20
  %4 = getelementptr inbounds nuw %struct.Gia_Man_t_, ptr %3, i32 0, i32 11
  %5 = load ptr, ptr %4, align 8, !tbaa !46
  %6 = call i32 @Vec_IntSize(ptr noundef %5)
  %7 = load ptr, ptr %2, align 8, !tbaa !20
  %8 = getelementptr inbounds nuw %struct.Gia_Man_t_, ptr %7, i32 0, i32 2
  %9 = load i32, ptr %8, align 8, !tbaa !53
  %10 = sub nsw i32 %6, %9
  ret i32 %10
}

; Function Attrs: nounwind uwtable
define i32 @Gia_QbfAddCofactor(ptr noundef %0, ptr noundef %1) #0 {
  %3 = alloca i32, align 4
  %4 = alloca ptr, align 8
  %5 = alloca ptr, align 8
  %6 = alloca ptr, align 8
  %7 = alloca i32, align 4
  %8 = alloca i32, align 4
  %9 = alloca i32, align 4
  %10 = alloca i32, align 4
  store ptr %0, ptr %4, align 8, !tbaa !104
  store ptr %1, ptr %5, align 8, !tbaa !20
  call void @llvm.lifetime.start.p0(i64 8, ptr %6) #14
  %11 = load ptr, ptr %5, align 8, !tbaa !20
  %12 = call ptr @Mf_ManGenerateCnf(ptr noundef %11, i32 noundef 8, i32 noundef 0, i32 noundef 1, i32 noundef 0, i32 noundef 0)
  store ptr %12, ptr %6, align 8, !tbaa !80
  call void @llvm.lifetime.start.p0(i64 4, ptr %7) #14
  call void @llvm.lifetime.start.p0(i64 4, ptr %8) #14
  store i32 0, ptr %8, align 4, !tbaa !8
  call void @llvm.lifetime.start.p0(i64 4, ptr %9) #14
  %13 = load i32, ptr %8, align 4, !tbaa !8
  %14 = icmp ne i32 %13, 0
  br i1 %14, label %15, label %27

15:                                               ; preds = %2
  %16 = load ptr, ptr %4, align 8, !tbaa !104
  %17 = getelementptr inbounds nuw %struct.Qbf_Man_t_, ptr %16, i32 0, i32 6
  %18 = load ptr, ptr %17, align 8, !tbaa !114
  %19 = call i32 @sat_solver_nvars(ptr noundef %18)
  %20 = load ptr, ptr %6, align 8, !tbaa !80
  %21 = getelementptr inbounds nuw %struct.Cnf_Dat_t_, ptr %20, i32 0, i32 1
  %22 = load i32, ptr %21, align 8, !tbaa !84
  %23 = add nsw i32 %19, %22
  %24 = load ptr, ptr %5, align 8, !tbaa !20
  %25 = call i32 @Gia_ManPiNum(ptr noundef %24)
  %26 = sub nsw i32 %23, %25
  br label %34

27:                                               ; preds = %2
  %28 = load ptr, ptr %6, align 8, !tbaa !80
  %29 = getelementptr inbounds nuw %struct.Cnf_Dat_t_, ptr %28, i32 0, i32 1
  %30 = load i32, ptr %29, align 8, !tbaa !84
  %31 = load ptr, ptr %5, align 8, !tbaa !20
  %32 = call i32 @Gia_ManPiNum(ptr noundef %31)
  %33 = sub nsw i32 %30, %32
  br label %34

34:                                               ; preds = %27, %15
  %35 = phi i32 [ %26, %15 ], [ %33, %27 ]
  store i32 %35, ptr %9, align 4, !tbaa !8
  %36 = load ptr, ptr %6, align 8, !tbaa !80
  %37 = getelementptr inbounds nuw %struct.Cnf_Dat_t_, ptr %36, i32 0, i32 0
  store ptr null, ptr %37, align 8, !tbaa !133
  %38 = load i32, ptr %8, align 4, !tbaa !8
  %39 = icmp ne i32 %38, 0
  br i1 %39, label %40, label %46

40:                                               ; preds = %34
  %41 = load ptr, ptr %6, align 8, !tbaa !80
  %42 = load ptr, ptr %4, align 8, !tbaa !104
  %43 = getelementptr inbounds nuw %struct.Qbf_Man_t_, ptr %42, i32 0, i32 6
  %44 = load ptr, ptr %43, align 8, !tbaa !114
  %45 = call i32 @sat_solver_nvars(ptr noundef %44)
  call void @Cnf_DataLift(ptr noundef %41, i32 noundef %45)
  br label %59

46:                                               ; preds = %34
  %47 = load ptr, ptr %6, align 8, !tbaa !80
  %48 = load ptr, ptr %4, align 8, !tbaa !104
  %49 = getelementptr inbounds nuw %struct.Qbf_Man_t_, ptr %48, i32 0, i32 6
  %50 = load ptr, ptr %49, align 8, !tbaa !114
  %51 = call i32 @sat_solver_nvars(ptr noundef %50)
  %52 = load i32, ptr %9, align 4, !tbaa !8
  %53 = load i32, ptr %9, align 4, !tbaa !8
  %54 = load ptr, ptr %4, align 8, !tbaa !104
  %55 = getelementptr inbounds nuw %struct.Qbf_Man_t_, ptr %54, i32 0, i32 0
  %56 = load ptr, ptr %55, align 8, !tbaa !108
  %57 = call i32 @Gia_ManPiNum(ptr noundef %56)
  %58 = add nsw i32 %53, %57
  call void @Cnf_SpecialDataLift(ptr noundef %47, i32 noundef %51, i32 noundef %52, i32 noundef %58)
  br label %59

59:                                               ; preds = %46, %40
  store i32 0, ptr %7, align 4, !tbaa !8
  br label %60

60:                                               ; preds = %90, %59
  %61 = load i32, ptr %7, align 4, !tbaa !8
  %62 = load ptr, ptr %6, align 8, !tbaa !80
  %63 = getelementptr inbounds nuw %struct.Cnf_Dat_t_, ptr %62, i32 0, i32 3
  %64 = load i32, ptr %63, align 8, !tbaa !134
  %65 = icmp slt i32 %61, %64
  br i1 %65, label %66, label %93

66:                                               ; preds = %60
  %67 = load ptr, ptr %4, align 8, !tbaa !104
  %68 = getelementptr inbounds nuw %struct.Qbf_Man_t_, ptr %67, i32 0, i32 6
  %69 = load ptr, ptr %68, align 8, !tbaa !114
  %70 = load ptr, ptr %6, align 8, !tbaa !80
  %71 = getelementptr inbounds nuw %struct.Cnf_Dat_t_, ptr %70, i32 0, i32 4
  %72 = load ptr, ptr %71, align 8, !tbaa !131
  %73 = load i32, ptr %7, align 4, !tbaa !8
  %74 = sext i32 %73 to i64
  %75 = getelementptr inbounds ptr, ptr %72, i64 %74
  %76 = load ptr, ptr %75, align 8, !tbaa !22
  %77 = load ptr, ptr %6, align 8, !tbaa !80
  %78 = getelementptr inbounds nuw %struct.Cnf_Dat_t_, ptr %77, i32 0, i32 4
  %79 = load ptr, ptr %78, align 8, !tbaa !131
  %80 = load i32, ptr %7, align 4, !tbaa !8
  %81 = add nsw i32 %80, 1
  %82 = sext i32 %81 to i64
  %83 = getelementptr inbounds ptr, ptr %79, i64 %82
  %84 = load ptr, ptr %83, align 8, !tbaa !22
  %85 = call i32 @sat_solver_addclause(ptr noundef %69, ptr noundef %76, ptr noundef %84)
  %86 = icmp ne i32 %85, 0
  br i1 %86, label %89, label %87

87:                                               ; preds = %66
  %88 = load ptr, ptr %6, align 8, !tbaa !80
  call void @Cnf_DataFree(ptr noundef %88)
  store i32 0, ptr %3, align 4
  store i32 1, ptr %10, align 4
  br label %122

89:                                               ; preds = %66
  br label %90

90:                                               ; preds = %89
  %91 = load i32, ptr %7, align 4, !tbaa !8
  %92 = add nsw i32 %91, 1
  store i32 %92, ptr %7, align 4, !tbaa !8
  br label %60, !llvm.loop !135

93:                                               ; preds = %60
  %94 = load ptr, ptr %6, align 8, !tbaa !80
  call void @Cnf_DataFree(ptr noundef %94)
  %95 = load i32, ptr %8, align 4, !tbaa !8
  %96 = icmp ne i32 %95, 0
  br i1 %96, label %97, label %121

97:                                               ; preds = %93
  store i32 0, ptr %7, align 4, !tbaa !8
  br label %98

98:                                               ; preds = %117, %97
  %99 = load i32, ptr %7, align 4, !tbaa !8
  %100 = load ptr, ptr %4, align 8, !tbaa !104
  %101 = getelementptr inbounds nuw %struct.Qbf_Man_t_, ptr %100, i32 0, i32 0
  %102 = load ptr, ptr %101, align 8, !tbaa !108
  %103 = call i32 @Gia_ManPiNum(ptr noundef %102)
  %104 = icmp slt i32 %99, %103
  br i1 %104, label %105, label %120

105:                                              ; preds = %98
  %106 = load ptr, ptr %4, align 8, !tbaa !104
  %107 = getelementptr inbounds nuw %struct.Qbf_Man_t_, ptr %106, i32 0, i32 6
  %108 = load ptr, ptr %107, align 8, !tbaa !114
  %109 = load i32, ptr %7, align 4, !tbaa !8
  %110 = load i32, ptr %9, align 4, !tbaa !8
  %111 = load i32, ptr %7, align 4, !tbaa !8
  %112 = add nsw i32 %110, %111
  %113 = call i32 @sat_solver_add_buffer(ptr noundef %108, i32 noundef %109, i32 noundef %112, i32 noundef 0)
  %114 = icmp ne i32 %113, 0
  br i1 %114, label %116, label %115

115:                                              ; preds = %105
  store i32 0, ptr %3, align 4
  store i32 1, ptr %10, align 4
  br label %122

116:                                              ; preds = %105
  br label %117

117:                                              ; preds = %116
  %118 = load i32, ptr %7, align 4, !tbaa !8
  %119 = add nsw i32 %118, 1
  store i32 %119, ptr %7, align 4, !tbaa !8
  br label %98, !llvm.loop !136

120:                                              ; preds = %98
  br label %121

121:                                              ; preds = %120, %93
  store i32 1, ptr %3, align 4
  store i32 1, ptr %10, align 4
  br label %122

122:                                              ; preds = %121, %115, %87
  call void @llvm.lifetime.end.p0(i64 4, ptr %9) #14
  call void @llvm.lifetime.end.p0(i64 4, ptr %8) #14
  call void @llvm.lifetime.end.p0(i64 4, ptr %7) #14
  call void @llvm.lifetime.end.p0(i64 8, ptr %6) #14
  %123 = load i32, ptr %3, align 4
  ret i32 %123
}