; Function Attrs: nounwind uwtable
define range(i32 0, 2) i32 @Gia_QbfAddCofactor(ptr noundef readonly captures(none) %0, ptr noundef %1) local_unnamed_addr #0 {
  %3 = tail call ptr @Mf_ManGenerateCnf(ptr noundef %1, i32 noundef 8, i32 noundef 0, i32 noundef 1, i32 noundef 0, i32 noundef 0) #29
  %4 = getelementptr inbounds nuw i8, ptr %3, i64 8
  %5 = load i32, ptr %4, align 8, !tbaa !75
  %6 = getelementptr i8, ptr %1, i64 16
  %.val36 = load i32, ptr %6, align 8, !tbaa !16
  %7 = getelementptr i8, ptr %1, i64 64
  %.val37 = load ptr, ptr %7, align 8, !tbaa !36
  %8 = getelementptr i8, ptr %.val37, i64 4
  %.val37.val = load i32, ptr %8, align 4, !tbaa !11
  %.neg = sub i32 %.val36, %.val37.val
  %9 = add i32 %.neg, %5
  store ptr null, ptr %3, align 8, !tbaa !125
  %10 = getelementptr inbounds nuw i8, ptr %0, i64 32
  %11 = load ptr, ptr %10, align 8, !tbaa !105
  %12 = tail call i32 @sat_solver_nvars(ptr noundef %11) #29
  %13 = load ptr, ptr %0, align 8, !tbaa !99
  %14 = getelementptr i8, ptr %13, i64 16
  %.val = load i32, ptr %14, align 8, !tbaa !16
  %15 = getelementptr i8, ptr %13, i64 64
  %.val35 = load ptr, ptr %15, align 8, !tbaa !36
  %16 = getelementptr i8, ptr %.val35, i64 4
  %.val35.val = load i32, ptr %16, align 4, !tbaa !11
  %17 = sub i32 %9, %.val
  %18 = add i32 %17, %.val35.val
  %19 = getelementptr inbounds nuw i8, ptr %3, i64 12
  %20 = load i32, ptr %19, align 4, !tbaa !121
  %21 = icmp sgt i32 %20, 0
  br i1 %21, label %.lr.ph.i, label %Cnf_SpecialDataLift.exit

.lr.ph.i:                                         ; preds = %2
  %22 = getelementptr inbounds nuw i8, ptr %3, i64 24
  %23 = load ptr, ptr %22, align 8, !tbaa !122
  %24 = load ptr, ptr %23, align 8, !tbaa !123
  %25 = shl nsw i32 %12, 1
  %.neg.i = mul i32 %9, -2
  br label %26

26:                                               ; preds = %26, %.lr.ph.i
  %indvars.iv.i = phi i64 [ 0, %.lr.ph.i ], [ %indvars.iv.next.i, %26 ]
  %27 = getelementptr inbounds nuw i32, ptr %24, i64 %indvars.iv.i
  %28 = load i32, ptr %27, align 4, !tbaa !12
  %29 = sdiv i32 %28, 2
  %30 = icmp sge i32 %29, %9
  %.not.i = icmp slt i32 %29, %18
  %or.cond.i = and i1 %30, %.not.i
  %storemerge.p.i = select i1 %or.cond.i, i32 %.neg.i, i32 %25
  %storemerge.i = add i32 %storemerge.p.i, %28
  store i32 %storemerge.i, ptr %27, align 4, !tbaa !12
  %indvars.iv.next.i = add nuw nsw i64 %indvars.iv.i, 1
  %31 = load i32, ptr %19, align 4, !tbaa !121
  %32 = sext i32 %31 to i64
  %33 = icmp slt i64 %indvars.iv.next.i, %32
  br i1 %33, label %26, label %Cnf_SpecialDataLift.exit, !llvm.loop !124

Cnf_SpecialDataLift.exit:                         ; preds = %26, %2
  %34 = getelementptr inbounds nuw i8, ptr %3, i64 16
  %35 = getelementptr inbounds nuw i8, ptr %3, i64 24
  br label %36

36:                                               ; preds = %40, %Cnf_SpecialDataLift.exit
  %indvars.iv = phi i64 [ %indvars.iv.next, %40 ], [ 0, %Cnf_SpecialDataLift.exit ]
  %37 = load i32, ptr %34, align 8, !tbaa !126
  %38 = sext i32 %37 to i64
  %39 = icmp slt i64 %indvars.iv, %38
  br i1 %39, label %40, label %48

40:                                               ; preds = %36
  %41 = load ptr, ptr %10, align 8, !tbaa !105
  %42 = load ptr, ptr %35, align 8, !tbaa !122
  %43 = getelementptr inbounds nuw ptr, ptr %42, i64 %indvars.iv
  %44 = load ptr, ptr %43, align 8, !tbaa !123
  %indvars.iv.next = add nuw nsw i64 %indvars.iv, 1
  %45 = getelementptr inbounds nuw ptr, ptr %42, i64 %indvars.iv.next
  %46 = load ptr, ptr %45, align 8, !tbaa !123
  %47 = tail call i32 @sat_solver_addclause(ptr noundef %41, ptr noundef %44, ptr noundef %46) #29
  %.not = icmp eq i32 %47, 0
  br i1 %.not, label %48, label %36, !llvm.loop !127

48:                                               ; preds = %36, %40
  %.0 = phi i32 [ 0, %40 ], [ 1, %36 ]
  tail call void @Cnf_DataFree(ptr noundef nonnull %3) #29
  ret i32 %.0
}